target datalayout = "e-m:e-p270:32:32-p271:32:32-p272:64:64-i64:64-i128:128-f80:128-n8:16:32:64-S128"
target triple = "x86_64-pc-linux-gnu"

%struct.hwloc_ps_process = type { i64, [64 x i8], [1024 x i8], ptr, i64, i32, i32, i32, ptr }

@.str.8 = private unnamed_addr constant [8 x i8] c"mpirank\00", align 1
@__const.hwloc_ps_pidcmd.envs = private unnamed_addr constant [4 x ptr] [ptr @.str.9, ptr @.str.10, ptr @.str.11, ptr @.str.12], align 16
@.str.13 = private unnamed_addr constant [5 x i8] c"env=\00", align 1
@.str.14 = private unnamed_addr constant [6 x i8] c"%s %u\00", align 1
@.str.15 = private unnamed_addr constant [2 x i8] c"r\00", align 1

; Function Attrs: nounwind uwtable
define hidden void @hwloc_ps_pidcmd(ptr noundef %0, ptr noundef %1) #0 {
  %3 = alloca ptr, align 8
  %4 = alloca ptr, align 8
  %5 = alloca ptr, align 8
  %6 = alloca ptr, align 8
  %7 = alloca [4 x ptr], align 16
  %8 = alloca i32, align 4
  %9 = alloca ptr, align 8
  %10 = alloca ptr, align 8
  store ptr %0, ptr %3, align 8, !tbaa !10
  store ptr %1, ptr %4, align 8, !tbaa !19
  call void @llvm.lifetime.start.p0(i64 8, ptr %5) #10
  call void @llvm.lifetime.start.p0(i64 8, ptr %6) #10
  %11 = load ptr, ptr %4, align 8, !tbaa !19
  %12 = call i32 @strcmp(ptr noundef %11, ptr noundef @.str.8) #12
  %13 = icmp ne i32 %12, 0
  br i1 %13, label %17, label %14

14:                                               ; preds = %2
  call void @llvm.lifetime.start.p0(i64 32, ptr %7) #10
  call void @llvm.memcpy.p0.p0.i64(ptr align 16 %7, ptr align 16 @__const.hwloc_ps_pidcmd.envs, i64 32, i1 false)
  %15 = load ptr, ptr %3, align 8, !tbaa !10
  %16 = getelementptr inbounds [4 x ptr], ptr %7, i64 0, i64 0
  call void @hwloc_ps_pidcmd_from_env(ptr noundef %15, i32 noundef 4, ptr noundef %16)
  store i32 1, ptr %8, align 4
  call void @llvm.lifetime.end.p0(i64 32, ptr %7) #10
  br label %66

17:                                               ; preds = %2
  %18 = load ptr, ptr %4, align 8, !tbaa !19
  %19 = call i32 @strncmp(ptr noundef %18, ptr noundef @.str.13, i64 noundef 4) #12
  %20 = icmp ne i32 %19, 0
  br i1 %20, label %25, label %21

21:                                               ; preds = %17
  call void @llvm.lifetime.start.p0(i64 8, ptr %9) #10
  %22 = load ptr, ptr %4, align 8, !tbaa !19
  %23 = getelementptr inbounds i8, ptr %22, i64 4
  store ptr %23, ptr %9, align 8, !tbaa !19
  %24 = load ptr, ptr %3, align 8, !tbaa !10
  call void @hwloc_ps_pidcmd_from_env(ptr noundef %24, i32 noundef 1, ptr noundef %9)
  store i32 1, ptr %8, align 4
  call void @llvm.lifetime.end.p0(i64 8, ptr %9) #10
  br label %66

25:                                               ; preds = %17
  %26 = load ptr, ptr %4, align 8, !tbaa !19
  %27 = call i64 @strlen(ptr noundef %26) #12
  %28 = add i64 %27, 1
  %29 = add i64 %28, 5
  %30 = add i64 %29, 2
  %31 = add i64 %30, 1
  %32 = call noalias ptr @malloc(i64 noundef %31) #11
  store ptr %32, ptr %5, align 8, !tbaa !19
  %33 = load ptr, ptr %5, align 8, !tbaa !19
  %34 = load ptr, ptr %4, align 8, !tbaa !19
  %35 = load ptr, ptr %3, align 8, !tbaa !10
  %36 = getelementptr inbounds nuw %struct.hwloc_ps_process, ptr %35, i32 0, i32 0
  %37 = load i64, ptr %36, align 8, !tbaa !14
  %38 = trunc i64 %37 to i32
  %39 = call i32 (ptr, ptr, ...) @sprintf(ptr noundef %33, ptr noundef @.str.14, ptr noundef %34, i32 noundef %38) #10
  %40 = load ptr, ptr %5, align 8, !tbaa !19
  %41 = call noalias ptr @popen(ptr noundef %40, ptr noundef @.str.15)
  store ptr %41, ptr %6, align 8, !tbaa !41
  %42 = load ptr, ptr %6, align 8, !tbaa !41
  %43 = icmp ne ptr %42, null
  br i1 %43, label %44, label %64

44:                                               ; preds = %25
  %45 = load ptr, ptr %3, align 8, !tbaa !10
  %46 = getelementptr inbounds nuw %struct.hwloc_ps_process, ptr %45, i32 0, i32 2
  %47 = getelementptr inbounds [1024 x i8], ptr %46, i64 0, i64 0
  %48 = load ptr, ptr %6, align 8, !tbaa !41
  %49 = call ptr @fgets(ptr noundef %47, i32 noundef 1024, ptr noundef %48)
  %50 = icmp ne ptr %49, null
  br i1 %50, label %51, label %61

51:                                               ; preds = %44
  call void @llvm.lifetime.start.p0(i64 8, ptr %10) #10
  %52 = load ptr, ptr %3, align 8, !tbaa !10
  %53 = getelementptr inbounds nuw %struct.hwloc_ps_process, ptr %52, i32 0, i32 2
  %54 = getelementptr inbounds [1024 x i8], ptr %53, i64 0, i64 0
  %55 = call ptr @strchr(ptr noundef %54, i32 noundef 10) #12
  store ptr %55, ptr %10, align 8, !tbaa !19
  %56 = load ptr, ptr %10, align 8, !tbaa !19
  %57 = icmp ne ptr %56, null
  br i1 %57, label %58, label %60

58:                                               ; preds = %51
  %59 = load ptr, ptr %10, align 8, !tbaa !19
  store i8 0, ptr %59, align 1, !tbaa !21
  br label %60

60:                                               ; preds = %58, %51
  call void @llvm.lifetime.end.p0(i64 8, ptr %10) #10
  br label %61

61:                                               ; preds = %60, %44
  %62 = load ptr, ptr %6, align 8, !tbaa !41
  %63 = call i32 @pclose(ptr noundef %62)
  br label %64

64:                                               ; preds = %61, %25
  %65 = load ptr, ptr %5, align 8, !tbaa !19
  call void @free(ptr noundef %65) #10
  store i32 0, ptr %8, align 4
  br label %66

66:                                               ; preds = %64, %21, %14
  call void @llvm.lifetime.end.p0(i64 8, ptr %6) #10
  call void @llvm.lifetime.end.p0(i64 8, ptr %5) #10
  %67 = load i32, ptr %8, align 4
  switch i32 %67, label %69 [
    i32 0, label %68
    i32 1, label %68
  ]

68:                                               ; preds = %66, %66
  ret void

69:                                               ; preds = %66
  unreachable
}