; Function Attrs: nounwind uwtable
define hidden void @hwloc_ps_pidcmd(ptr noundef %0, ptr noundef %1) local_unnamed_addr #0 {
  %3 = alloca ptr, align 8
  %4 = tail call i32 @strcmp(ptr noundef nonnull dereferenceable(1) %1, ptr noundef nonnull dereferenceable(8) @.str.8) #17
  %.not = icmp eq i32 %4, 0
  br i1 %.not, label %5, label %6

5:                                                ; preds = %2
  tail call fastcc void @hwloc_ps_pidcmd_from_env(ptr noundef %0, i32 noundef 4, ptr noundef @__const.hwloc_ps_pidcmd.envs)
  br label %27

6:                                                ; preds = %2
  %7 = tail call i32 @strncmp(ptr noundef nonnull dereferenceable(1) %1, ptr noundef nonnull dereferenceable(5) @.str.13, i64 noundef 4) #17
  %.not19 = icmp eq i32 %7, 0
  br i1 %.not19, label %8, label %10

8:                                                ; preds = %6
  call void @llvm.lifetime.start.p0(i64 8, ptr nonnull %3) #15
  %9 = getelementptr inbounds nuw i8, ptr %1, i64 4
  store ptr %9, ptr %3, align 8, !tbaa !14
  call fastcc void @hwloc_ps_pidcmd_from_env(ptr noundef %0, i32 noundef 1, ptr noundef %3)
  call void @llvm.lifetime.end.p0(i64 8, ptr nonnull %3) #15
  br label %27

10:                                               ; preds = %6
  %11 = tail call i64 @strlen(ptr noundef nonnull dereferenceable(1) %1) #17
  %12 = add i64 %11, 9
  %13 = tail call noalias ptr @malloc(i64 noundef %12) #16
  %14 = load i64, ptr %0, align 8, !tbaa !3
  %15 = trunc i64 %14 to i32
  %16 = tail call i32 (ptr, ptr, ...) @sprintf(ptr noundef nonnull dereferenceable(1) %13, ptr noundef nonnull dereferenceable(1) @.str.14, ptr noundef nonnull %1, i32 noundef %15) #15
  %17 = tail call noalias ptr @popen(ptr noundef nonnull %13, ptr noundef nonnull @.str.15)
  %.not20 = icmp eq ptr %17, null
  br i1 %.not20, label %26, label %18

18:                                               ; preds = %10
  %19 = getelementptr inbounds nuw i8, ptr %0, i64 72
  %20 = tail call ptr @fgets(ptr noundef nonnull %19, i32 noundef 1024, ptr noundef nonnull %17)
  %.not21 = icmp eq ptr %20, null
  br i1 %.not21, label %24, label %21

21:                                               ; preds = %18
  %22 = tail call ptr @strchr(ptr noundef nonnull dereferenceable(1) %19, i32 noundef 10) #17
  %.not22 = icmp eq ptr %22, null
  br i1 %.not22, label %24, label %23

23:                                               ; preds = %21
  store i8 0, ptr %22, align 1, !tbaa !12
  br label %24

24:                                               ; preds = %21, %23, %18
  %25 = tail call i32 @pclose(ptr noundef nonnull %17)
  br label %26

26:                                               ; preds = %24, %10
  tail call void @free(ptr noundef nonnull %13) #15
  br label %27

27:                                               ; preds = %26, %8, %5
  ret void
}